target datalayout = "e-m:e-p270:32:32-p271:32:32-p272:64:64-i64:64-i128:128-f80:128-n8:16:32:64-S128"
target triple = "x86_64-pc-linux-gnu"

%class.Draw = type { i8, ptr, ptr, ptr, ptr, ptr, ptr, ptr, ptr, %struct.b2DebugDraw, ptr, ptr, ptr, ptr }
%struct.b2DebugDraw = type { ptr, ptr, ptr, ptr, ptr, ptr, ptr, ptr, ptr, %struct.b2AABB, i8, i8, i8, i8, i8, i8, i8, i8, i8, i8, i8, i8, ptr }
%struct.b2AABB = type { %struct.b2Vec2, %struct.b2Vec2 }
%struct.b2Vec2 = type { float, float }

; Function Attrs: mustprogress uwtable
define dso_local void @_ZN4Draw5FlushEv(ptr noundef nonnull align 8 dereferenceable(216) %0) #2 align 2 {
  %2 = alloca ptr, align 8
  store ptr %0, ptr %2, align 8, !tbaa !30
  %3 = load ptr, ptr %2, align 8
  %4 = getelementptr inbounds nuw %class.Draw, ptr %3, i32 0, i32 6
  %5 = load ptr, ptr %4, align 8, !tbaa !51
  call void @_ZN14GLSolidCircles5FlushEv(ptr noundef nonnull align 8 dereferenceable(48) %5)
  %6 = getelementptr inbounds nuw %class.Draw, ptr %3, i32 0, i32 7
  %7 = load ptr, ptr %6, align 8, !tbaa !52
  call void @_ZN15GLSolidCapsules5FlushEv(ptr noundef nonnull align 8 dereferenceable(48) %7)
  %8 = getelementptr inbounds nuw %class.Draw, ptr %3, i32 0, i32 8
  %9 = load ptr, ptr %8, align 8, !tbaa !49
  call void @_ZN15GLSolidPolygons5FlushEv(ptr noundef nonnull align 8 dereferenceable(48) %9)
  %10 = getelementptr inbounds nuw %class.Draw, ptr %3, i32 0, i32 4
  %11 = load ptr, ptr %10, align 8, !tbaa !57
  call void @_ZN11GLTriangles5FlushEv(ptr noundef nonnull align 8 dereferenceable(40) %11)
  %12 = getelementptr inbounds nuw %class.Draw, ptr %3, i32 0, i32 5
  %13 = load ptr, ptr %12, align 8, !tbaa !50
  call void @_ZN9GLCircles5FlushEv(ptr noundef nonnull align 8 dereferenceable(48) %13)
  %14 = getelementptr inbounds nuw %class.Draw, ptr %3, i32 0, i32 3
  %15 = load ptr, ptr %14, align 8, !tbaa !32
  call void @_ZN7GLLines5FlushEv(ptr noundef nonnull align 8 dereferenceable(40) %15)
  %16 = getelementptr inbounds nuw %class.Draw, ptr %3, i32 0, i32 2
  %17 = load ptr, ptr %16, align 8, !tbaa !53
  call void @_ZN8GLPoints5FlushEv(ptr noundef nonnull align 8 dereferenceable(40) %17)
  call void @_Z12CheckErrorGLv()
  ret void
}