; Function Attrs: mustprogress uwtable
define dso_local void @_ZN4Draw5FlushEv(ptr noundef nonnull readonly align 8 captures(none) dereferenceable(216) %0) local_unnamed_addr #8 align 2 {
  %2 = getelementptr inbounds nuw i8, ptr %0, i64 48
  %3 = load ptr, ptr %2, align 8, !tbaa !35
  tail call void @_ZN14GLSolidCircles5FlushEv(ptr noundef nonnull align 8 dereferenceable(48) %3)
  %4 = getelementptr inbounds nuw i8, ptr %0, i64 56
  %5 = load ptr, ptr %4, align 8, !tbaa !36
  tail call void @_ZN15GLSolidCapsules5FlushEv(ptr noundef nonnull align 8 dereferenceable(48) %5)
  %6 = getelementptr inbounds nuw i8, ptr %0, i64 64
  %7 = load ptr, ptr %6, align 8, !tbaa !33
  tail call void @_ZN15GLSolidPolygons5FlushEv(ptr noundef nonnull align 8 dereferenceable(48) %7)
  %8 = getelementptr inbounds nuw i8, ptr %0, i64 32
  %9 = load ptr, ptr %8, align 8, !tbaa !61
  tail call void @_ZN11GLTriangles5FlushEv(ptr noundef nonnull align 8 dereferenceable(40) %9)
  %10 = getelementptr inbounds nuw i8, ptr %0, i64 40
  %11 = load ptr, ptr %10, align 8, !tbaa !34
  tail call void @_ZN9GLCircles5FlushEv(ptr noundef nonnull align 8 dereferenceable(48) %11)
  %12 = getelementptr inbounds nuw i8, ptr %0, i64 24
  %13 = load ptr, ptr %12, align 8, !tbaa !16
  tail call void @_ZN7GLLines5FlushEv(ptr noundef nonnull align 8 dereferenceable(40) %13)
  %14 = getelementptr inbounds nuw i8, ptr %0, i64 16
  %15 = load ptr, ptr %14, align 8, !tbaa !37
  tail call void @_ZN8GLPoints5FlushEv(ptr noundef nonnull align 8 dereferenceable(40) %15)
  tail call void @_Z12CheckErrorGLv()
  ret void
}